; ModuleID = '10/979.c'
source_filename = "10/979.c"
target datalayout = "e-m:e-p270:32:32-p271:32:32-p272:64:64-i64:64-f80:128-n8:16:32:64-S128"
target triple = "x86_64-pc-linux-gnu"

@a = dso_local global [26 x i32] zeroinitializer, align 16
@m = dso_local global i32 0, align 4
@p = dso_local global i32 1, align 4
@n = common dso_local global i32 0, align 4
@b = common dso_local global [10000 x i32] zeroinitializer, align 16
@.str = private unnamed_addr constant [3 x i8] c"%d\00", align 1

; Function Attrs: noinline nounwind uwtable
define dso_local void @dao(i32 %0, i32 %1) #0 {
  %3 = alloca i32, align 4
  %4 = alloca i32, align 4
  %5 = alloca i32, align 4
  %6 = alloca i32, align 4
  store i32 %0, i32* %3, align 4
  store i32 %1, i32* %4, align 4
  store i32 0, i32* %6, align 4
  %7 = load i32, i32* %4, align 4
  %8 = add nsw i32 %7, 1
  store i32 %8, i32* %5, align 4
  br label %9

9:                                                ; preds = %31, %2
  %10 = load i32, i32* %5, align 4
  %11 = load i32, i32* @n, align 4
  %12 = icmp slt i32 %10, %11
  br i1 %12, label %13, label %34

13:                                               ; preds = %9
  %14 = load i32, i32* %5, align 4
  %15 = sext i32 %14 to i64
  %16 = getelementptr inbounds [26 x i32], [26 x i32]* @a, i64 0, i64 %15
  %17 = load i32, i32* %16, align 4
  %18 = load i32, i32* %3, align 4
  %19 = icmp sle i32 %17, %18
  br i1 %19, label %20, label %30

20:                                               ; preds = %13
  store i32 1, i32* %6, align 4
  %21 = load i32, i32* @p, align 4
  %22 = add nsw i32 %21, 1
  store i32 %22, i32* @p, align 4
  %23 = load i32, i32* %5, align 4
  %24 = sext i32 %23 to i64
  %25 = getelementptr inbounds [26 x i32], [26 x i32]* @a, i64 0, i64 %24
  %26 = load i32, i32* %25, align 4
  %27 = load i32, i32* %5, align 4
  call void @dao(i32 %26, i32 %27)
  %28 = load i32, i32* @p, align 4
  %29 = sub nsw i32 %28, 1
  store i32 %29, i32* @p, align 4
  br label %30

30:                                               ; preds = %20, %13
  br label %31

31:                                               ; preds = %30
  %32 = load i32, i32* %5, align 4
  %33 = add nsw i32 %32, 1
  store i32 %33, i32* %5, align 4
  br label %9

34:                                               ; preds = %9
  %35 = load i32, i32* %6, align 4
  %36 = icmp eq i32 %35, 0
  br i1 %36, label %37, label %44

37:                                               ; preds = %34
  %38 = load i32, i32* @p, align 4
  %39 = load i32, i32* @m, align 4
  %40 = sext i32 %39 to i64
  %41 = getelementptr inbounds [10000 x i32], [10000 x i32]* @b, i64 0, i64 %40
  store i32 %38, i32* %41, align 4
  %42 = load i32, i32* @m, align 4
  %43 = add nsw i32 %42, 1
  store i32 %43, i32* @m, align 4
  br label %44

44:                                               ; preds = %37, %34
  ret void
}

; Function Attrs: noinline nounwind uwtable
define dso_local i32 @main() #0 {
  %1 = alloca i32, align 4
  %2 = alloca i32, align 4
  %3 = alloca i32, align 4
  store i32 0, i32* %1, align 4
  %4 = call i32 (i8*, ...) @__isoc99_scanf(i8* getelementptr inbounds ([3 x i8], [3 x i8]* @.str, i64 0, i64 0), i32* @n)
  store i32 0, i32* %2, align 4
  br label %5

5:                                                ; preds = %14, %0
  %6 = load i32, i32* %2, align 4
  %7 = load i32, i32* @n, align 4
  %8 = icmp slt i32 %6, %7
  br i1 %8, label %9, label %17

9:                                                ; preds = %5
  %10 = load i32, i32* %2, align 4
  %11 = sext i32 %10 to i64
  %12 = getelementptr inbounds [26 x i32], [26 x i32]* @a, i64 0, i64 %11
  %13 = call i32 (i8*, ...) @__isoc99_scanf(i8* getelementptr inbounds ([3 x i8], [3 x i8]* @.str, i64 0, i64 0), i32* %12)
  br label %14

14:                                               ; preds = %9
  %15 = load i32, i32* %2, align 4
  %16 = add nsw i32 %15, 1
  store i32 %16, i32* %2, align 4
  br label %5

17:                                               ; preds = %5
  store i32 0, i32* %2, align 4
  br label %18

18:                                               ; preds = %28, %17
  %19 = load i32, i32* %2, align 4
  %20 = load i32, i32* @n, align 4
  %21 = icmp slt i32 %19, %20
  br i1 %21, label %22, label %31

22:                                               ; preds = %18
  %23 = load i32, i32* %2, align 4
  %24 = sext i32 %23 to i64
  %25 = getelementptr inbounds [26 x i32], [26 x i32]* @a, i64 0, i64 %24
  %26 = load i32, i32* %25, align 4
  %27 = load i32, i32* %2, align 4
  call void @dao(i32 %26, i32 %27)
  br label %28

28:                                               ; preds = %22
  %29 = load i32, i32* %2, align 4
  %30 = add nsw i32 %29, 1
  store i32 %30, i32* %2, align 4
  br label %18

31:                                               ; preds = %18
  store i32 0, i32* %2, align 4
  br label %32

32:                                               ; preds = %67, %31
  %33 = load i32, i32* %2, align 4
  %34 = load i32, i32* @m, align 4
  %35 = sub nsw i32 %34, 1
  %36 = icmp slt i32 %33, %35
  br i1 %36, label %37, label %70

37:                                               ; preds = %32
  %38 = load i32, i32* %2, align 4
  %39 = sext i32 %38 to i64
  %40 = getelementptr inbounds [10000 x i32], [10000 x i32]* @b, i64 0, i64 %39
  %41 = load i32, i32* %40, align 4
  %42 = load i32, i32* %2, align 4
  %43 = add nsw i32 %42, 1
  %44 = sext i32 %43 to i64
  %45 = getelementptr inbounds [10000 x i32], [10000 x i32]* @b, i64 0, i64 %44
  %46 = load i32, i32* %45, align 4
  %47 = icmp sgt i32 %41, %46
  br i1 %47, label %48, label %66

48:                                               ; preds = %37
  %49 = load i32, i32* %2, align 4
  %50 = sext i32 %49 to i64
  %51 = getelementptr inbounds [10000 x i32], [10000 x i32]* @b, i64 0, i64 %50
  %52 = load i32, i32* %51, align 4
  store i32 %52, i32* %3, align 4
  %53 = load i32, i32* %2, align 4
  %54 = add nsw i32 %53, 1
  %55 = sext i32 %54 to i64
  %56 = getelementptr inbounds [10000 x i32], [10000 x i32]* @b, i64 0, i64 %55
  %57 = load i32, i32* %56, align 4
  %58 = load i32, i32* %2, align 4
  %59 = sext i32 %58 to i64
  %60 = getelementptr inbounds [10000 x i32], [10000 x i32]* @b, i64 0, i64 %59
  store i32 %57, i32* %60, align 4
  %61 = load i32, i32* %3, align 4
  %62 = load i32, i32* %2, align 4
  %63 = add nsw i32 %62, 1
  %64 = sext i32 %63 to i64
  %65 = getelementptr inbounds [10000 x i32], [10000 x i32]* @b, i64 0, i64 %64
  store i32 %61, i32* %65, align 4
  br label %66

66:                                               ; preds = %48, %37
  br label %67

67:                                               ; preds = %66
  %68 = load i32, i32* %2, align 4
  %69 = add nsw i32 %68, 1
  store i32 %69, i32* %2, align 4
  br label %32

70:                                               ; preds = %32
  %71 = load i32, i32* @m, align 4
  %72 = sub nsw i32 %71, 1
  %73 = sext i32 %72 to i64
  %74 = getelementptr inbounds [10000 x i32], [10000 x i32]* @b, i64 0, i64 %73
  %75 = load i32, i32* %74, align 4
  %76 = call i32 (i8*, ...) @printf(i8* getelementptr inbounds ([3 x i8], [3 x i8]* @.str, i64 0, i64 0), i32 %75)
  ret i32 0
}

declare dso_local i32 @__isoc99_scanf(i8*, ...) #1

declare dso_local i32 @printf(i8*, ...) #1


!llvm.module.flags = !{!0}
!llvm.ident = !{!1}

!0 = !{i32 1, !"wchar_size", i32 4}
!1 = !{!"clang version 10.0.0-4ubuntu1 "}
